; Function Attrs: mustprogress uwtable
define dso_local void @_ZN4V3Os7getlineB5cxx11ERSic(ptr dead_on_unwind noalias nonnull writable sret(%"class.std::__cxx11::basic_string") align 8 %0, ptr noundef nonnull align 8 dereferenceable(16) %1, i8 noundef signext %2) local_unnamed_addr #6 align 2 personality ptr @__gxx_personality_v0 {
  %4 = getelementptr inbounds nuw i8, ptr %0, i64 16
  store ptr %4, ptr %0, align 8, !tbaa !12
  %5 = getelementptr inbounds nuw i8, ptr %0, i64 8
  store i64 0, ptr %5, align 8, !tbaa !16
  store i8 0, ptr %4, align 8, !tbaa !18
  %6 = invoke noundef nonnull align 8 dereferenceable(16) ptr @_ZSt7getlineIcSt11char_traitsIcESaIcEERSt13basic_istreamIT_T0_ES7_RNSt7__cxx1112basic_stringIS4_S5_T1_EES4_(ptr noundef nonnull align 8 dereferenceable(16) %1, ptr noundef nonnull align 8 dereferenceable(32) %0, i8 noundef signext %2)
          to label %15 unwind label %7

7:                                                ; preds = %3
  %8 = landingpad { ptr, i32 }
          cleanup
  %9 = load ptr, ptr %0, align 8, !tbaa !19
  %10 = icmp eq ptr %9, %4
  br i1 %10, label %_ZNKSt7__cxx1112basic_stringIcSt11char_traitsIcESaIcEE11_M_is_localEv.exit.thread.i.i, label %_ZNKSt7__cxx1112basic_stringIcSt11char_traitsIcESaIcEE11_M_is_localEv.exit.i.i

_ZNKSt7__cxx1112basic_stringIcSt11char_traitsIcESaIcEE11_M_is_localEv.exit.thread.i.i: ; preds = %7
  %11 = load i64, ptr %5, align 8, !tbaa !16
  %12 = icmp ult i64 %11, 16
  tail call void @llvm.assume(i1 %12)
  br label %_ZNSt7__cxx1112basic_stringIcSt11char_traitsIcESaIcEED2Ev.exit

_ZNKSt7__cxx1112basic_stringIcSt11char_traitsIcESaIcEE11_M_is_localEv.exit.i.i: ; preds = %7
  %13 = load i64, ptr %4, align 8, !tbaa !18
  %14 = add i64 %13, 1
  tail call void @_ZdlPvm(ptr noundef %9, i64 noundef %14) #30
  br label %_ZNSt7__cxx1112basic_stringIcSt11char_traitsIcESaIcEED2Ev.exit

_ZNSt7__cxx1112basic_stringIcSt11char_traitsIcESaIcEED2Ev.exit: ; preds = %_ZNKSt7__cxx1112basic_stringIcSt11char_traitsIcESaIcEE11_M_is_localEv.exit.thread.i.i, %_ZNKSt7__cxx1112basic_stringIcSt11char_traitsIcESaIcEE11_M_is_localEv.exit.i.i
  resume { ptr, i32 } %8

15:                                               ; preds = %3
  ret void
}